target datalayout = "e-m:e-p270:32:32-p271:32:32-p272:64:64-i64:64-i128:128-f80:128-n8:16:32:64-S128"
target triple = "x86_64-pc-linux-gnu"

%struct.BCWriteCtx = type { %struct.SBuf, ptr, ptr, ptr, ptr, i32, i32, i32 }
%struct.SBuf = type { ptr, ptr, ptr, %struct.MRef }
%struct.MRef = type { i64 }
%struct.GCRef = type { i64 }
%struct.GCproto = type { %struct.GCRef, i8, i8, i8, i8, i32, i32, %struct.GCRef, %struct.MRef, %struct.MRef, i32, i32, i32, i8, i8, i16, %struct.GCRef, i32, i32, %struct.MRef, %struct.MRef, %struct.MRef }
%struct.GCstr = type { %struct.GCRef, i8, i8, i8, i8, i32, i32, i32 }

; Function Attrs: alwaysinline nounwind uwtable
define internal ptr @lj_buf_wmem(ptr noundef %0, ptr noundef %1, i32 noundef %2) #2 {
  %4 = alloca ptr, align 8
  %5 = alloca ptr, align 8
  %6 = alloca i32, align 4
  store ptr %0, ptr %4, align 8, !tbaa !47
  store ptr %1, ptr %5, align 8, !tbaa !11
  store i32 %2, ptr %6, align 4, !tbaa !12
  %7 = load ptr, ptr %4, align 8, !tbaa !47
  %8 = load ptr, ptr %5, align 8, !tbaa !11
  %9 = load i32, ptr %6, align 4, !tbaa !12
  %10 = zext i32 %9 to i64
  call void @llvm.memcpy.p0.p0.i64(ptr align 1 %7, ptr align 1 %8, i64 %10, i1 false)
  %11 = load i32, ptr %6, align 4, !tbaa !12
  %12 = zext i32 %11 to i64
  %13 = getelementptr inbounds nuw i8, ptr %7, i64 %12
  ret ptr %13
}

; Function Attrs: nounwind uwtable
define internal void @bcwrite_footer(ptr noundef %0) #0 {
  %2 = alloca ptr, align 8
  %3 = alloca i8, align 1
  store ptr %0, ptr %2, align 8, !tbaa !37
  %4 = load ptr, ptr %2, align 8, !tbaa !37
  %5 = getelementptr inbounds nuw %struct.BCWriteCtx, ptr %4, i32 0, i32 7
  %6 = load i32, ptr %5, align 8, !tbaa !25
  %7 = icmp eq i32 %6, 0
  br i1 %7, label %8, label %25

8:                                                ; preds = %1
  call void @llvm.lifetime.start.p0(i64 1, ptr %3) #7
  store i8 0, ptr %3, align 1, !tbaa !50
  %9 = load ptr, ptr %2, align 8, !tbaa !37
  %10 = getelementptr inbounds nuw %struct.BCWriteCtx, ptr %9, i32 0, i32 2
  %11 = load ptr, ptr %10, align 8, !tbaa !21
  %12 = load ptr, ptr %2, align 8, !tbaa !37
  %13 = getelementptr inbounds nuw %struct.BCWriteCtx, ptr %12, i32 0, i32 0
  %14 = getelementptr inbounds nuw %struct.SBuf, ptr %13, i32 0, i32 3
  %15 = getelementptr inbounds nuw %struct.MRef, ptr %14, i32 0, i32 0
  %16 = load i64, ptr %15, align 8, !tbaa !26
  %17 = and i64 %16, -8
  %18 = inttoptr i64 %17 to ptr
  %19 = load ptr, ptr %2, align 8, !tbaa !37
  %20 = getelementptr inbounds nuw %struct.BCWriteCtx, ptr %19, i32 0, i32 3
  %21 = load ptr, ptr %20, align 8, !tbaa !22
  %22 = call i32 %11(ptr noundef %18, ptr noundef %3, i64 noundef 1, ptr noundef %21)
  %23 = load ptr, ptr %2, align 8, !tbaa !37
  %24 = getelementptr inbounds nuw %struct.BCWriteCtx, ptr %23, i32 0, i32 7
  store i32 %22, ptr %24, align 8, !tbaa !25
  call void @llvm.lifetime.end.p0(i64 1, ptr %3) #7
  br label %25

25:                                               ; preds = %8, %1
  ret void
}

; Function Attrs: nounwind uwtable
define internal void @bcwrite_header(ptr noundef %0) #0 {
  %2 = alloca ptr, align 8
  %3 = alloca ptr, align 8
  %4 = alloca ptr, align 8
  %5 = alloca i32, align 4
  %6 = alloca ptr, align 8
  store ptr %0, ptr %2, align 8, !tbaa !37
  call void @llvm.lifetime.start.p0(i64 8, ptr %3) #7
  %7 = load ptr, ptr %2, align 8, !tbaa !37
  %8 = getelementptr inbounds nuw %struct.BCWriteCtx, ptr %7, i32 0, i32 1
  %9 = load ptr, ptr %8, align 8, !tbaa !14
  %10 = getelementptr inbounds nuw %struct.GCproto, ptr %9, i32 0, i32 16
  %11 = getelementptr inbounds nuw %struct.GCRef, ptr %10, i32 0, i32 0
  %12 = load i64, ptr %11, align 8, !tbaa !42
  %13 = inttoptr i64 %12 to ptr
  store ptr %13, ptr %3, align 8, !tbaa !45
  call void @llvm.lifetime.start.p0(i64 8, ptr %4) #7
  %14 = load ptr, ptr %3, align 8, !tbaa !45
  %15 = getelementptr inbounds %struct.GCstr, ptr %14, i64 1
  store ptr %15, ptr %4, align 8, !tbaa !47
  call void @llvm.lifetime.start.p0(i64 4, ptr %5) #7
  %16 = load ptr, ptr %3, align 8, !tbaa !45
  %17 = getelementptr inbounds nuw %struct.GCstr, ptr %16, i32 0, i32 7
  %18 = load i32, ptr %17, align 4, !tbaa !48
  store i32 %18, ptr %5, align 4, !tbaa !12
  call void @llvm.lifetime.start.p0(i64 8, ptr %6) #7
  %19 = load ptr, ptr %2, align 8, !tbaa !37
  %20 = getelementptr inbounds nuw %struct.BCWriteCtx, ptr %19, i32 0, i32 0
  %21 = load i32, ptr %5, align 4, !tbaa !12
  %22 = add i32 10, %21
  %23 = call ptr @lj_buf_need(ptr noundef %20, i32 noundef %22)
  store ptr %23, ptr %6, align 8, !tbaa !47
  %24 = load ptr, ptr %6, align 8, !tbaa !47
  %25 = getelementptr inbounds nuw i8, ptr %24, i32 1
  store ptr %25, ptr %6, align 8, !tbaa !47
  store i8 27, ptr %24, align 1, !tbaa !50
  %26 = load ptr, ptr %6, align 8, !tbaa !47
  %27 = getelementptr inbounds nuw i8, ptr %26, i32 1
  store ptr %27, ptr %6, align 8, !tbaa !47
  store i8 76, ptr %26, align 1, !tbaa !50
  %28 = load ptr, ptr %6, align 8, !tbaa !47
  %29 = getelementptr inbounds nuw i8, ptr %28, i32 1
  store ptr %29, ptr %6, align 8, !tbaa !47
  store i8 74, ptr %28, align 1, !tbaa !50
  %30 = load ptr, ptr %6, align 8, !tbaa !47
  %31 = getelementptr inbounds nuw i8, ptr %30, i32 1
  store ptr %31, ptr %6, align 8, !tbaa !47
  store i8 2, ptr %30, align 1, !tbaa !50
  %32 = load ptr, ptr %2, align 8, !tbaa !37
  %33 = getelementptr inbounds nuw %struct.BCWriteCtx, ptr %32, i32 0, i32 6
  %34 = load i32, ptr %33, align 4, !tbaa !24
  %35 = and i32 %34, 10
  %36 = add i32 %35, 0
  %37 = load ptr, ptr %2, align 8, !tbaa !37
  %38 = getelementptr inbounds nuw %struct.BCWriteCtx, ptr %37, i32 0, i32 1
  %39 = load ptr, ptr %38, align 8, !tbaa !14
  %40 = getelementptr inbounds nuw %struct.GCproto, ptr %39, i32 0, i32 14
  %41 = load i8, ptr %40, align 1, !tbaa !51
  %42 = zext i8 %41 to i32
  %43 = and i32 %42, 4
  %44 = icmp ne i32 %43, 0
  %45 = select i1 %44, i32 4, i32 0
  %46 = add i32 %36, %45
  %47 = trunc i32 %46 to i8
  %48 = load ptr, ptr %6, align 8, !tbaa !47
  %49 = getelementptr inbounds nuw i8, ptr %48, i32 1
  store ptr %49, ptr %6, align 8, !tbaa !47
  store i8 %47, ptr %48, align 1, !tbaa !50
  %50 = load ptr, ptr %2, align 8, !tbaa !37
  %51 = getelementptr inbounds nuw %struct.BCWriteCtx, ptr %50, i32 0, i32 6
  %52 = load i32, ptr %51, align 4, !tbaa !24
  %53 = and i32 %52, 2
  %54 = icmp ne i32 %53, 0
  br i1 %54, label %63, label %55

55:                                               ; preds = %1
  %56 = load ptr, ptr %6, align 8, !tbaa !47
  %57 = load i32, ptr %5, align 4, !tbaa !12
  %58 = call ptr @lj_strfmt_wuleb128(ptr noundef %56, i32 noundef %57)
  store ptr %58, ptr %6, align 8, !tbaa !47
  %59 = load ptr, ptr %6, align 8, !tbaa !47
  %60 = load ptr, ptr %4, align 8, !tbaa !47
  %61 = load i32, ptr %5, align 4, !tbaa !12
  %62 = call ptr @lj_buf_wmem(ptr noundef %59, ptr noundef %60, i32 noundef %61)
  store ptr %62, ptr %6, align 8, !tbaa !47
  br label %63

63:                                               ; preds = %55, %1
  %64 = load ptr, ptr %2, align 8, !tbaa !37
  %65 = getelementptr inbounds nuw %struct.BCWriteCtx, ptr %64, i32 0, i32 2
  %66 = load ptr, ptr %65, align 8, !tbaa !21
  %67 = load ptr, ptr %2, align 8, !tbaa !37
  %68 = getelementptr inbounds nuw %struct.BCWriteCtx, ptr %67, i32 0, i32 0
  %69 = getelementptr inbounds nuw %struct.SBuf, ptr %68, i32 0, i32 3
  %70 = getelementptr inbounds nuw %struct.MRef, ptr %69, i32 0, i32 0
  %71 = load i64, ptr %70, align 8, !tbaa !26
  %72 = and i64 %71, -8
  %73 = inttoptr i64 %72 to ptr
  %74 = load ptr, ptr %2, align 8, !tbaa !37
  %75 = getelementptr inbounds nuw %struct.BCWriteCtx, ptr %74, i32 0, i32 0
  %76 = getelementptr inbounds nuw %struct.SBuf, ptr %75, i32 0, i32 2
  %77 = load ptr, ptr %76, align 8, !tbaa !52
  %78 = load ptr, ptr %6, align 8, !tbaa !47
  %79 = load ptr, ptr %2, align 8, !tbaa !37
  %80 = getelementptr inbounds nuw %struct.BCWriteCtx, ptr %79, i32 0, i32 0
  %81 = getelementptr inbounds nuw %struct.SBuf, ptr %80, i32 0, i32 2
  %82 = load ptr, ptr %81, align 8, !tbaa !52
  %83 = ptrtoint ptr %78 to i64
  %84 = ptrtoint ptr %82 to i64
  %85 = sub i64 %83, %84
  %86 = trunc i64 %85 to i32
  %87 = zext i32 %86 to i64
  %88 = load ptr, ptr %2, align 8, !tbaa !37
  %89 = getelementptr inbounds nuw %struct.BCWriteCtx, ptr %88, i32 0, i32 3
  %90 = load ptr, ptr %89, align 8, !tbaa !22
  %91 = call i32 %66(ptr noundef %73, ptr noundef %77, i64 noundef %87, ptr noundef %90)
  %92 = load ptr, ptr %2, align 8, !tbaa !37
  %93 = getelementptr inbounds nuw %struct.BCWriteCtx, ptr %92, i32 0, i32 7
  store i32 %91, ptr %93, align 8, !tbaa !25
  call void @llvm.lifetime.end.p0(i64 8, ptr %6) #7
  call void @llvm.lifetime.end.p0(i64 4, ptr %5) #7
  call void @llvm.lifetime.end.p0(i64 8, ptr %4) #7
  call void @llvm.lifetime.end.p0(i64 8, ptr %3) #7
  ret void
}

; Function Attrs: alwaysinline nounwind uwtable
define internal ptr @lj_buf_need(ptr noundef %0, i32 noundef %1) #2 {
  %3 = alloca ptr, align 8
  %4 = alloca ptr, align 8
  %5 = alloca i32, align 4
  store ptr %0, ptr %4, align 8, !tbaa !31
  store i32 %1, ptr %5, align 4, !tbaa !12
  %6 = load i32, ptr %5, align 4, !tbaa !12
  %7 = load ptr, ptr %4, align 8, !tbaa !31
  %8 = getelementptr inbounds nuw %struct.SBuf, ptr %7, i32 0, i32 1
  %9 = load ptr, ptr %8, align 8, !tbaa !35
  %10 = load ptr, ptr %4, align 8, !tbaa !31
  %11 = getelementptr inbounds nuw %struct.SBuf, ptr %10, i32 0, i32 2
  %12 = load ptr, ptr %11, align 8, !tbaa !34
  %13 = ptrtoint ptr %9 to i64
  %14 = ptrtoint ptr %12 to i64
  %15 = sub i64 %13, %14
  %16 = trunc i64 %15 to i32
  %17 = icmp ugt i32 %6, %16
  %18 = xor i1 %17, true
  %19 = xor i1 %18, true
  %20 = zext i1 %19 to i32
  %21 = sext i32 %20 to i64
  %22 = call i64 @llvm.expect.i64(i64 %21, i64 0)
  %23 = icmp ne i64 %22, 0
  br i1 %23, label %24, label %28

24:                                               ; preds = %2
  %25 = load ptr, ptr %4, align 8, !tbaa !31
  %26 = load i32, ptr %5, align 4, !tbaa !12
  %27 = call ptr @lj_buf_need2(ptr noundef %25, i32 noundef %26)
  store ptr %27, ptr %3, align 8
  br label %32

28:                                               ; preds = %2
  %29 = load ptr, ptr %4, align 8, !tbaa !31
  %30 = getelementptr inbounds nuw %struct.SBuf, ptr %29, i32 0, i32 2
  %31 = load ptr, ptr %30, align 8, !tbaa !34
  store ptr %31, ptr %3, align 8
  br label %32

32:                                               ; preds = %28, %24
  %33 = load ptr, ptr %3, align 8
  ret ptr %33
}

; Function Attrs: nounwind uwtable
define internal ptr @cpwriter(ptr noundef %0, ptr noundef %1, ptr noundef %2) #0 {
  %4 = alloca ptr, align 8
  %5 = alloca ptr, align 8
  %6 = alloca ptr, align 8
  %7 = alloca ptr, align 8
  store ptr %0, ptr %4, align 8, !tbaa !4
  store ptr %1, ptr %5, align 8, !tbaa !11
  store ptr %2, ptr %6, align 8, !tbaa !11
  call void @llvm.lifetime.start.p0(i64 8, ptr %7) #7
  %8 = load ptr, ptr %6, align 8, !tbaa !11
  store ptr %8, ptr %7, align 8, !tbaa !37
  %9 = load ptr, ptr %7, align 8, !tbaa !37
  %10 = getelementptr inbounds nuw %struct.BCWriteCtx, ptr %9, i32 0, i32 0
  %11 = call ptr @lj_buf_need(ptr noundef %10, i32 noundef 1024)
  %12 = load ptr, ptr %7, align 8, !tbaa !37
  call void @bcwrite_header(ptr noundef %12)
  %13 = load ptr, ptr %7, align 8, !tbaa !37
  %14 = load ptr, ptr %7, align 8, !tbaa !37
  %15 = getelementptr inbounds nuw %struct.BCWriteCtx, ptr %14, i32 0, i32 1
  %16 = load ptr, ptr %15, align 8, !tbaa !14
  call void @bcwrite_proto(ptr noundef %13, ptr noundef %16)
  %17 = load ptr, ptr %7, align 8, !tbaa !37
  call void @bcwrite_footer(ptr noundef %17)
  call void @llvm.lifetime.end.p0(i64 8, ptr %7) #7
  ret ptr null
}