; Function Attrs: nounwind uwtable
define internal noundef ptr @cpwriter(ptr readnone captures(none) %0, ptr readnone captures(none) %1, ptr noundef %2) #0 {
  %4 = alloca i8, align 1
  %5 = getelementptr inbounds nuw i8, ptr %2, i64 8
  %6 = load ptr, ptr %5, align 8, !tbaa !29
  %7 = getelementptr inbounds nuw i8, ptr %2, i64 16
  %8 = load ptr, ptr %7, align 8, !tbaa !28
  %9 = ptrtoint ptr %6 to i64
  %10 = ptrtoint ptr %8 to i64
  %11 = sub i64 %9, %10
  %12 = and i64 %11, 4294966272
  %13 = icmp eq i64 %12, 0
  br i1 %13, label %14, label %lj_buf_need.exit, !prof !42

14:                                               ; preds = %3
  %15 = tail call ptr @lj_buf_need2(ptr noundef nonnull %2, i32 noundef 1024) #7
  %.pre = load ptr, ptr %5, align 8, !tbaa !29
  %.pre7 = load ptr, ptr %7, align 8, !tbaa !28
  %.pre8 = ptrtoint ptr %.pre to i64
  %.pre9 = ptrtoint ptr %.pre7 to i64
  %.pre11 = sub i64 %.pre8, %.pre9
  br label %lj_buf_need.exit

lj_buf_need.exit:                                 ; preds = %3, %14
  %.pre-phi12 = phi i64 [ %11, %3 ], [ %.pre11, %14 ]
  %16 = phi ptr [ %8, %3 ], [ %.pre7, %14 ]
  %17 = getelementptr inbounds nuw i8, ptr %2, i64 32
  %18 = load ptr, ptr %17, align 8, !tbaa !4
  %19 = getelementptr inbounds nuw i8, ptr %18, i64 64
  %20 = load i64, ptr %19, align 8, !tbaa !43
  %21 = inttoptr i64 %20 to ptr
  %22 = getelementptr inbounds nuw i8, ptr %21, i64 20
  %23 = load i32, ptr %22, align 4, !tbaa !46
  %24 = add i32 %23, 10
  %25 = trunc i64 %.pre-phi12 to i32
  %26 = icmp ugt i32 %24, %25
  br i1 %26, label %27, label %lj_buf_need.exit.i, !prof !42

27:                                               ; preds = %lj_buf_need.exit
  %28 = tail call ptr @lj_buf_need2(ptr noundef nonnull %2, i32 noundef %24) #7
  br label %lj_buf_need.exit.i

lj_buf_need.exit.i:                               ; preds = %27, %lj_buf_need.exit
  %.0.i.i = phi ptr [ %28, %27 ], [ %16, %lj_buf_need.exit ]
  %29 = getelementptr inbounds nuw i8, ptr %.0.i.i, i64 1
  store i8 27, ptr %.0.i.i, align 1, !tbaa !47
  %30 = getelementptr inbounds nuw i8, ptr %.0.i.i, i64 2
  store i8 76, ptr %29, align 1, !tbaa !47
  %31 = getelementptr inbounds nuw i8, ptr %.0.i.i, i64 3
  store i8 74, ptr %30, align 1, !tbaa !47
  %32 = getelementptr inbounds nuw i8, ptr %.0.i.i, i64 4
  store i8 2, ptr %31, align 1, !tbaa !47
  %33 = getelementptr inbounds nuw i8, ptr %2, i64 68
  %34 = load i32, ptr %33, align 4, !tbaa !20
  %35 = load ptr, ptr %17, align 8, !tbaa !4
  %36 = getelementptr inbounds nuw i8, ptr %35, i64 61
  %37 = load i8, ptr %36, align 1, !tbaa !48
  %38 = and i8 %37, 4
  %39 = trunc i32 %34 to i8
  %40 = and i8 %39, 10
  %41 = or disjoint i8 %38, %40
  %42 = getelementptr inbounds nuw i8, ptr %.0.i.i, i64 5
  store i8 %41, ptr %32, align 1, !tbaa !47
  %43 = load i32, ptr %33, align 4, !tbaa !20
  %44 = and i32 %43, 2
  %.not.i = icmp eq i32 %44, 0
  br i1 %.not.i, label %45, label %bcwrite_header.exit

45:                                               ; preds = %lj_buf_need.exit.i
  %46 = getelementptr inbounds nuw i8, ptr %21, i64 24
  %47 = tail call ptr @lj_strfmt_wuleb128(ptr noundef nonnull %42, i32 noundef %23) #7
  %48 = zext i32 %23 to i64
  tail call void @llvm.memcpy.p0.p0.i64(ptr align 1 %47, ptr nonnull align 1 %46, i64 %48, i1 false)
  %49 = getelementptr inbounds nuw i8, ptr %47, i64 %48
  br label %bcwrite_header.exit

bcwrite_header.exit:                              ; preds = %lj_buf_need.exit.i, %45
  %.0.i6 = phi ptr [ %42, %lj_buf_need.exit.i ], [ %49, %45 ]
  %50 = getelementptr inbounds nuw i8, ptr %2, i64 40
  %51 = load ptr, ptr %50, align 8, !tbaa !16
  %52 = getelementptr inbounds nuw i8, ptr %2, i64 24
  %53 = load i64, ptr %52, align 8, !tbaa !23
  %54 = and i64 %53, -8
  %55 = inttoptr i64 %54 to ptr
  %56 = load ptr, ptr %7, align 8, !tbaa !49
  %57 = ptrtoint ptr %.0.i6 to i64
  %58 = ptrtoint ptr %56 to i64
  %59 = sub i64 %57, %58
  %60 = and i64 %59, 4294967295
  %61 = getelementptr inbounds nuw i8, ptr %2, i64 48
  %62 = load ptr, ptr %61, align 8, !tbaa !17
  %63 = tail call i32 %51(ptr noundef %55, ptr noundef %56, i64 noundef %60, ptr noundef %62) #7
  %64 = getelementptr inbounds nuw i8, ptr %2, i64 72
  store i32 %63, ptr %64, align 8, !tbaa !21
  %65 = load ptr, ptr %17, align 8, !tbaa !4
  tail call fastcc void @bcwrite_proto(ptr noundef nonnull %2, ptr noundef %65)
  %66 = load i32, ptr %64, align 8, !tbaa !21
  %67 = icmp eq i32 %66, 0
  br i1 %67, label %68, label %bcwrite_footer.exit

68:                                               ; preds = %bcwrite_header.exit
  call void @llvm.lifetime.start.p0(i64 1, ptr nonnull %4) #7
  store i8 0, ptr %4, align 1, !tbaa !47
  %69 = load ptr, ptr %50, align 8, !tbaa !16
  %70 = load i64, ptr %52, align 8, !tbaa !23
  %71 = and i64 %70, -8
  %72 = inttoptr i64 %71 to ptr
  %73 = load ptr, ptr %61, align 8, !tbaa !17
  %74 = call i32 %69(ptr noundef %72, ptr noundef nonnull %4, i64 noundef 1, ptr noundef %73) #7
  store i32 %74, ptr %64, align 8, !tbaa !21
  call void @llvm.lifetime.end.p0(i64 1, ptr nonnull %4) #7
  br label %bcwrite_footer.exit

bcwrite_footer.exit:                              ; preds = %bcwrite_header.exit, %68
  ret ptr null
}